; Function Attrs: nofree norecurse nosync nounwind memory(read, inaccessiblemem: none) uwtable
define hidden signext range(i8 0, 2) i8 @nfaExecMcSheng8_inAccept(ptr noundef readonly captures(none) %0, i32 noundef %1, ptr noundef readonly captures(none) %2) local_unnamed_addr #2 {
  %4 = getelementptr inbounds nuw i8, ptr %2, i64 16
  %5 = load ptr, ptr %4, align 8
  %6 = load i8, ptr %5, align 1
  %7 = getelementptr inbounds nuw i8, ptr %0, i64 76
  %8 = load i32, ptr %7, align 4
  %9 = zext i32 %8 to i64
  %10 = getelementptr inbounds nuw i8, ptr %0, i64 %9
  %11 = zext i8 %6 to i64
  %12 = getelementptr inbounds nuw %struct.mstate_aux, ptr %10, i64 %11
  %.val = load i32, ptr %12, align 4
  %.not.i = icmp eq i32 %.val, 0
  br i1 %.not.i, label %mcshengHasAccept.exit, label %13

13:                                               ; preds = %3
  %14 = getelementptr inbounds nuw i8, ptr %0, i64 64
  %15 = zext i32 %.val to i64
  %16 = getelementptr inbounds nuw i8, ptr %14, i64 %15
  %17 = getelementptr inbounds i8, ptr %16, i64 -64
  %18 = getelementptr inbounds i8, ptr %16, i64 -60
  %19 = load i32, ptr %17, align 4
  %.not131.not.i = icmp eq i32 %19, 0
  br i1 %.not131.not.i, label %mcshengHasAccept.exit, label %.lr.ph.preheader.i

.lr.ph.preheader.i:                               ; preds = %13
  %wide.trip.count.i = zext i32 %19 to i64
  br label %.lr.ph.i

20:                                               ; preds = %.lr.ph.i
  %indvars.iv.next.i = add nuw nsw i64 %indvars.iv.i, 1
  %exitcond.not.i = icmp eq i64 %indvars.iv.next.i, %wide.trip.count.i
  br i1 %exitcond.not.i, label %mcshengHasAccept.exit, label %.lr.ph.i

.lr.ph.i:                                         ; preds = %20, %.lr.ph.preheader.i
  %indvars.iv.i = phi i64 [ 0, %.lr.ph.preheader.i ], [ %indvars.iv.next.i, %20 ]
  %21 = getelementptr inbounds nuw [0 x i32], ptr %18, i64 0, i64 %indvars.iv.i
  %22 = load i32, ptr %21, align 4
  %23 = icmp eq i32 %22, %1
  br i1 %23, label %mcshengHasAccept.exit, label %20

mcshengHasAccept.exit:                            ; preds = %20, %.lr.ph.i, %3, %13
  %.011.i = phi i8 [ 0, %3 ], [ 0, %13 ], [ 0, %20 ], [ 1, %.lr.ph.i ]
  ret i8 %.011.i
}